target datalayout = "e-m:e-p270:32:32-p271:32:32-p272:64:64-i64:64-i128:128-f80:128-n8:16:32:64-S128"
target triple = "x86_64-pc-linux-gnu"

@.str.301 = private unnamed_addr constant [6 x i8] c"%%.0f\00", align 1
@.str.302 = private unnamed_addr constant [7 x i8] c"%%.%df\00", align 1

; Function Attrs: nounwind uwtable
define internal ptr @sigfig(double noundef %0, i32 noundef %1, ptr noundef %2, i32 noundef %3) #0 {
  %5 = alloca double, align 8
  %6 = alloca i32, align 4
  %7 = alloca ptr, align 8
  %8 = alloca i32, align 4
  %9 = alloca [80 x i8], align 16
  %10 = alloca i32, align 4
  store double %0, ptr %5, align 8, !tbaa !14
  store i32 %1, ptr %6, align 4, !tbaa !4
  store ptr %2, ptr %7, align 8, !tbaa !12
  store i32 %3, ptr %8, align 4, !tbaa !4
  call void @llvm.lifetime.start.p0(i64 80, ptr %9) #12
  call void @llvm.lifetime.start.p0(i64 4, ptr %10) #12
  %11 = load i32, ptr %6, align 4, !tbaa !4
  %12 = load double, ptr %5, align 8, !tbaa !14
  %13 = call double @llvm.fabs.f64(double %12)
  %14 = call double @log10(double noundef %13) #12, !tbaa !4
  %15 = call double @llvm.ceil.f64(double %14)
  %16 = fptosi double %15 to i32
  %17 = sub nsw i32 %11, %16
  store i32 %17, ptr %10, align 4, !tbaa !4
  %18 = load i32, ptr %10, align 4, !tbaa !4
  %19 = icmp slt i32 %18, 1
  br i1 %19, label %20, label %23

20:                                               ; preds = %4
  %21 = getelementptr inbounds [80 x i8], ptr %9, i64 0, i64 0
  %22 = call i32 (ptr, i64, ptr, ...) @snprintf(ptr noundef %21, i64 noundef 80, ptr noundef @.str.301) #12
  br label %27

23:                                               ; preds = %4
  %24 = getelementptr inbounds [80 x i8], ptr %9, i64 0, i64 0
  %25 = load i32, ptr %10, align 4, !tbaa !4
  %26 = call i32 (ptr, i64, ptr, ...) @snprintf(ptr noundef %24, i64 noundef 80, ptr noundef @.str.302, i32 noundef %25) #12
  br label %27

27:                                               ; preds = %23, %20
  %28 = load ptr, ptr %7, align 8, !tbaa !12
  %29 = load i32, ptr %8, align 4, !tbaa !4
  %30 = sext i32 %29 to i64
  %31 = getelementptr inbounds [80 x i8], ptr %9, i64 0, i64 0
  %32 = load double, ptr %5, align 8, !tbaa !14
  %33 = call i32 (ptr, i64, ptr, ...) @snprintf(ptr noundef %28, i64 noundef %30, ptr noundef %31, double noundef %32) #12
  %34 = load ptr, ptr %7, align 8, !tbaa !12
  call void @llvm.lifetime.end.p0(i64 4, ptr %10) #12
  call void @llvm.lifetime.end.p0(i64 80, ptr %9) #12
  ret ptr %34
}