; Function Attrs: nofree nounwind uwtable
define internal fastcc noundef nonnull ptr @sigfig(double noundef %0, ptr noundef nonnull returned writeonly captures(ret: address, provenance) %1, i32 noundef range(i32 80, 1025) %2) unnamed_addr #15 {
  %4 = alloca [80 x i8], align 16
  call void @llvm.lifetime.start.p0(i64 80, ptr nonnull %4) #23
  %5 = tail call double @llvm.fabs.f64(double %0)
  %6 = tail call double @log10(double noundef %5) #23, !tbaa !4
  %7 = tail call double @llvm.ceil.f64(double %6)
  %8 = fptosi double %7 to i32
  %9 = icmp sgt i32 %8, 3
  br i1 %9, label %10, label %12

10:                                               ; preds = %3
  %11 = call i32 (ptr, i64, ptr, ...) @snprintf(ptr noundef nonnull dereferenceable(1) %4, i64 noundef 80, ptr noundef nonnull @.str.301) #23
  br label %15

12:                                               ; preds = %3
  %13 = sub nsw i32 4, %8
  %14 = call i32 (ptr, i64, ptr, ...) @snprintf(ptr noundef nonnull dereferenceable(1) %4, i64 noundef 80, ptr noundef nonnull @.str.302, i32 noundef %13) #23
  br label %15

15:                                               ; preds = %12, %10
  %16 = zext nneg i32 %2 to i64
  %17 = call i32 (ptr, i64, ptr, ...) @snprintf(ptr noundef nonnull dereferenceable(1) %1, i64 noundef %16, ptr noundef nonnull %4, double noundef %0) #23
  call void @llvm.lifetime.end.p0(i64 80, ptr nonnull %4) #23
  ret ptr %1
}